target datalayout = "e-m:e-p270:32:32-p271:32:32-p272:64:64-i64:64-i128:128-f80:128-n8:16:32:64-S128"
target triple = "x86_64-pc-linux-gnu"

%struct.ident_t = type { i32, i32, i32, i32, ptr }

@2 = private unnamed_addr constant %struct.ident_t { i32 0, i32 514, i32 0, i32 22, ptr @0 }, align 8
@_ZN5faiss12_GLOBAL__N_18bigprimeE = internal global i64 8955327411143, align 8

; Function Attrs: mustprogress nounwind uwtable
define internal noundef i64 @_ZN5faiss12_GLOBAL__N_113hash_functionEl(i64 noundef %0) #2 {
  %2 = alloca i64, align 8
  store i64 %0, ptr %2, align 8
  %3 = load i64, ptr %2, align 8
  %4 = mul nsw i64 %3, 1000003
  %5 = load i64, ptr @_ZN5faiss12_GLOBAL__N_18bigprimeE, align 8
  %6 = srem i64 %4, %5
  ret i64 %6
}

; Function Attrs: norecurse nounwind uwtable
define internal void @_ZN5faiss31hashtable_int64_to_int64_lookupEiPKlmS1_Pl.omp_outlined(ptr noalias noundef %0, ptr noalias noundef %1, ptr noundef nonnull align 8 dereferenceable(8) %2, ptr noundef nonnull align 8 dereferenceable(8) %3, ptr noundef nonnull align 8 dereferenceable(8) %4, ptr noundef nonnull align 8 dereferenceable(8) %5, ptr noundef nonnull align 8 dereferenceable(8) %6, ptr noundef nonnull align 4 dereferenceable(4) %7, ptr noundef nonnull align 4 dereferenceable(4) %8) #6 {
  %10 = alloca ptr, align 8
  %11 = alloca ptr, align 8
  %12 = alloca ptr, align 8
  %13 = alloca ptr, align 8
  %14 = alloca ptr, align 8
  %15 = alloca ptr, align 8
  %16 = alloca ptr, align 8
  %17 = alloca ptr, align 8
  %18 = alloca ptr, align 8
  %19 = alloca i64, align 8
  %20 = alloca i64, align 8
  %21 = alloca i64, align 8
  %22 = alloca i64, align 8
  %23 = alloca i64, align 8
  %24 = alloca i64, align 8
  %25 = alloca i64, align 8
  %26 = alloca i32, align 4
  %27 = alloca i64, align 8
  %28 = alloca i64, align 8
  %29 = alloca i64, align 8
  %30 = alloca i64, align 8
  %31 = alloca i64, align 8
  %32 = alloca i64, align 8
  %33 = alloca i64, align 8
  store ptr %0, ptr %10, align 8
  store ptr %1, ptr %11, align 8
  store ptr %2, ptr %12, align 8
  store ptr %3, ptr %13, align 8
  store ptr %4, ptr %14, align 8
  store ptr %5, ptr %15, align 8
  store ptr %6, ptr %16, align 8
  store ptr %7, ptr %17, align 8
  store ptr %8, ptr %18, align 8
  %34 = load ptr, ptr %12, align 8
  %35 = load ptr, ptr %13, align 8
  %36 = load ptr, ptr %14, align 8
  %37 = load ptr, ptr %15, align 8
  %38 = load ptr, ptr %16, align 8
  %39 = load ptr, ptr %17, align 8
  %40 = load ptr, ptr %18, align 8
  %41 = load i64, ptr %34, align 8
  store i64 %41, ptr %20, align 8
  %42 = load i64, ptr %20, align 8
  %43 = sub i64 %42, 0
  %44 = udiv i64 %43, 1
  %45 = sub i64 %44, 1
  store i64 %45, ptr %21, align 8
  store i64 0, ptr %22, align 8
  %46 = load i64, ptr %20, align 8
  %47 = icmp ult i64 0, %46
  br i1 %47, label %48, label %174

48:                                               ; preds = %9
  store i64 0, ptr %23, align 8
  %49 = load i64, ptr %21, align 8
  store i64 %49, ptr %24, align 8
  store i64 1, ptr %25, align 8
  store i32 0, ptr %26, align 4
  %50 = load ptr, ptr %10, align 8
  %51 = load i32, ptr %50, align 4
  call void @__kmpc_for_static_init_8u(ptr @2, i32 %51, i32 34, ptr %26, ptr %23, ptr %24, ptr %25, i64 1, i64 1)
  %52 = load i64, ptr %24, align 8
  %53 = load i64, ptr %21, align 8
  %54 = icmp ugt i64 %52, %53
  br i1 %54, label %55, label %57

55:                                               ; preds = %48
  %56 = load i64, ptr %21, align 8
  br label %59

57:                                               ; preds = %48
  %58 = load i64, ptr %24, align 8
  br label %59

59:                                               ; preds = %57, %55
  %60 = phi i64 [ %56, %55 ], [ %58, %57 ]
  store i64 %60, ptr %24, align 8
  %61 = load i64, ptr %23, align 8
  store i64 %61, ptr %19, align 8
  br label %62

62:                                               ; preds = %167, %59
  %63 = load i64, ptr %19, align 8
  %64 = load i64, ptr %24, align 8
  %65 = add i64 %64, 1
  %66 = icmp ult i64 %63, %65
  br i1 %66, label %67, label %170

67:                                               ; preds = %62
  %68 = load i64, ptr %19, align 8
  %69 = mul i64 %68, 1
  %70 = add i64 0, %69
  store i64 %70, ptr %27, align 8
  %71 = load ptr, ptr %35, align 8
  %72 = load i64, ptr %27, align 8
  %73 = getelementptr inbounds i64, ptr %71, i64 %72
  %74 = load i64, ptr %73, align 8
  store i64 %74, ptr %28, align 8
  %75 = load i64, ptr %28, align 8
  %76 = call noundef i64 @_ZN5faiss12_GLOBAL__N_113hash_functionEl(i64 noundef %75)
  %77 = load i64, ptr %36, align 8
  %78 = and i64 %76, %77
  store i64 %78, ptr %29, align 8
  %79 = load i64, ptr %29, align 8
  store i64 %79, ptr %30, align 8
  %80 = load ptr, ptr %37, align 8
  %81 = load i64, ptr %30, align 8
  %82 = mul i64 2, %81
  %83 = getelementptr inbounds i64, ptr %80, i64 %82
  %84 = load i64, ptr %83, align 8
  %85 = icmp eq i64 %84, -1
  br i1 %85, label %86, label %90

86:                                               ; preds = %67
  %87 = load ptr, ptr %38, align 8
  %88 = load i64, ptr %27, align 8
  %89 = getelementptr inbounds i64, ptr %87, i64 %88
  store i64 -1, ptr %89, align 8
  br label %165

90:                                               ; preds = %67
  %91 = load ptr, ptr %37, align 8
  %92 = load i64, ptr %30, align 8
  %93 = mul i64 2, %92
  %94 = getelementptr inbounds i64, ptr %91, i64 %93
  %95 = load i64, ptr %94, align 8
  %96 = load i64, ptr %28, align 8
  %97 = icmp eq i64 %95, %96
  br i1 %97, label %98, label %108

98:                                               ; preds = %90
  %99 = load ptr, ptr %37, align 8
  %100 = load i64, ptr %30, align 8
  %101 = mul i64 2, %100
  %102 = add i64 %101, 1
  %103 = getelementptr inbounds i64, ptr %99, i64 %102
  %104 = load i64, ptr %103, align 8
  %105 = load ptr, ptr %38, align 8
  %106 = load i64, ptr %27, align 8
  %107 = getelementptr inbounds i64, ptr %105, i64 %106
  store i64 %104, ptr %107, align 8
  br label %164

108:                                              ; preds = %90
  %109 = load i64, ptr %29, align 8
  %110 = load i32, ptr %39, align 4
  %111 = load i32, ptr %40, align 4
  %112 = sub nsw i32 %110, %111
  %113 = zext i32 %112 to i64
  %114 = ashr i64 %109, %113
  store i64 %114, ptr %31, align 8
  %115 = load i64, ptr %31, align 8
  %116 = load i32, ptr %39, align 4
  %117 = load i32, ptr %40, align 4
  %118 = sub nsw i32 %116, %117
  %119 = zext i32 %118 to i64
  %120 = shl i64 %115, %119
  store i64 %120, ptr %32, align 8
  %121 = load i64, ptr %31, align 8
  %122 = add i64 %121, 1
  %123 = load i32, ptr %39, align 4
  %124 = load i32, ptr %40, align 4
  %125 = sub nsw i32 %123, %124
  %126 = zext i32 %125 to i64
  %127 = shl i64 %122, %126
  store i64 %127, ptr %33, align 8
  br label %128

128:                                              ; preds = %162, %108
  %129 = load ptr, ptr %37, align 8
  %130 = load i64, ptr %30, align 8
  %131 = mul i64 %130, 2
  %132 = getelementptr inbounds i64, ptr %129, i64 %131
  %133 = load i64, ptr %132, align 8
  %134 = load i64, ptr %28, align 8
  %135 = icmp eq i64 %133, %134
  br i1 %135, label %136, label %146

136:                                              ; preds = %128
  %137 = load ptr, ptr %37, align 8
  %138 = load i64, ptr %30, align 8
  %139 = mul i64 2, %138
  %140 = add i64 %139, 1
  %141 = getelementptr inbounds i64, ptr %137, i64 %140
  %142 = load i64, ptr %141, align 8
  %143 = load ptr, ptr %38, align 8
  %144 = load i64, ptr %27, align 8
  %145 = getelementptr inbounds i64, ptr %143, i64 %144
  store i64 %142, ptr %145, align 8
  br label %163

146:                                              ; preds = %128
  %147 = load i64, ptr %30, align 8
  %148 = add i64 %147, 1
  store i64 %148, ptr %30, align 8
  %149 = load i64, ptr %30, align 8
  %150 = load i64, ptr %33, align 8
  %151 = icmp eq i64 %149, %150
  br i1 %151, label %152, label %154

152:                                              ; preds = %146
  %153 = load i64, ptr %32, align 8
  store i64 %153, ptr %30, align 8
  br label %154

154:                                              ; preds = %152, %146
  %155 = load i64, ptr %30, align 8
  %156 = load i64, ptr %29, align 8
  %157 = icmp eq i64 %155, %156
  br i1 %157, label %158, label %162

158:                                              ; preds = %154
  %159 = load ptr, ptr %38, align 8
  %160 = load i64, ptr %27, align 8
  %161 = getelementptr inbounds i64, ptr %159, i64 %160
  store i64 -1, ptr %161, align 8
  br label %163

162:                                              ; preds = %154
  br label %128, !llvm.loop !90

163:                                              ; preds = %158, %136
  br label %164

164:                                              ; preds = %163, %98
  br label %165

165:                                              ; preds = %164, %86
  br label %166

166:                                              ; preds = %165
  br label %167

167:                                              ; preds = %166
  %168 = load i64, ptr %19, align 8
  %169 = add i64 %168, 1
  store i64 %169, ptr %19, align 8
  br label %62

170:                                              ; preds = %62
  br label %171

171:                                              ; preds = %170
  %172 = load ptr, ptr %10, align 8
  %173 = load i32, ptr %172, align 4
  call void @__kmpc_for_static_fini(ptr @2, i32 %173)
  br label %174

174:                                              ; preds = %171, %9
  ret void
}