; Function Attrs: norecurse nounwind uwtable
define internal void @_ZN5faiss31hashtable_int64_to_int64_lookupEiPKlmS1_Pl.omp_outlined(ptr noalias nocapture noundef readonly %0, ptr noalias nocapture readnone %1, ptr nocapture noundef nonnull readonly align 8 dereferenceable(8) %2, ptr nocapture noundef nonnull readonly align 8 dereferenceable(8) %3, ptr nocapture noundef nonnull readonly align 8 dereferenceable(8) %4, ptr nocapture noundef nonnull readonly align 8 dereferenceable(8) %5, ptr nocapture noundef nonnull readonly align 8 dereferenceable(8) %6, ptr nocapture noundef nonnull readonly align 4 dereferenceable(4) %7, ptr nocapture noundef nonnull readonly align 4 dereferenceable(4) %8) #8 {
  %10 = alloca i64, align 8
  %11 = alloca i64, align 8
  %12 = alloca i64, align 8
  %13 = alloca i32, align 4
  %14 = load i64, ptr %2, align 8
  %.not = icmp eq i64 %14, 0
  br i1 %.not, label %62, label %15

15:                                               ; preds = %9
  %16 = add i64 %14, -1
  store i64 0, ptr %10, align 8
  store i64 %16, ptr %11, align 8
  store i64 1, ptr %12, align 8
  store i32 0, ptr %13, align 4
  %17 = load i32, ptr %0, align 4
  call void @__kmpc_for_static_init_8u(ptr nonnull @2, i32 %17, i32 34, ptr nonnull %13, ptr nonnull %10, ptr nonnull %11, ptr nonnull %12, i64 1, i64 1)
  %18 = load i64, ptr %11, align 8
  %19 = call i64 @llvm.umin.i64(i64 %18, i64 %16)
  store i64 %19, ptr %11, align 8
  %20 = load i64, ptr %10, align 8
  %.not52 = icmp ugt i64 %20, %19
  br i1 %.not52, label %._crit_edge, label %.lr.ph

.lr.ph:                                           ; preds = %15, %.loopexit
  %.044 = phi i64 [ %58, %.loopexit ], [ %20, %15 ]
  %21 = load ptr, ptr %3, align 8
  %22 = getelementptr inbounds i64, ptr %21, i64 %.044
  %23 = load i64, ptr %22, align 8
  %24 = mul nsw i64 %23, 1000003
  %25 = srem i64 %24, 8955327411143
  %26 = load i64, ptr %4, align 8
  %27 = and i64 %25, %26
  %28 = load ptr, ptr %5, align 8
  %29 = shl i64 %27, 1
  %30 = getelementptr inbounds i64, ptr %28, i64 %29
  %31 = load i64, ptr %30, align 8
  %32 = icmp eq i64 %31, -1
  br i1 %32, label %.loopexit, label %33

33:                                               ; preds = %.lr.ph
  %34 = icmp eq i64 %31, %23
  br i1 %34, label %.sink.split, label %35

35:                                               ; preds = %33
  %36 = load i32, ptr %7, align 4
  %37 = load i32, ptr %8, align 4
  %38 = sub nsw i32 %36, %37
  %39 = zext i32 %38 to i64
  %40 = ashr i64 %27, %39
  %41 = shl i64 %40, %39
  %42 = add i64 %40, 1
  %43 = shl i64 %42, %39
  br label %44

44:                                               ; preds = %49, %35
  %.039 = phi i64 [ %27, %35 ], [ %spec.select, %49 ]
  %45 = shl i64 %.039, 1
  %46 = getelementptr inbounds i64, ptr %28, i64 %45
  %47 = load i64, ptr %46, align 8
  %48 = icmp eq i64 %47, %23
  br i1 %48, label %.sink.split, label %49

49:                                               ; preds = %44
  %50 = add i64 %.039, 1
  %51 = icmp eq i64 %50, %43
  %spec.select = select i1 %51, i64 %41, i64 %50
  %52 = icmp eq i64 %spec.select, %27
  br i1 %52, label %.loopexit, label %44, !llvm.loop !93

.sink.split:                                      ; preds = %44, %33
  %.sink51 = phi i64 [ %29, %33 ], [ %45, %44 ]
  %53 = or disjoint i64 %.sink51, 1
  %54 = getelementptr inbounds i64, ptr %28, i64 %53
  %55 = load i64, ptr %54, align 8
  br label %.loopexit

.loopexit:                                        ; preds = %49, %.sink.split, %.lr.ph
  %.sink = phi i64 [ -1, %.lr.ph ], [ %55, %.sink.split ], [ -1, %49 ]
  %56 = load ptr, ptr %6, align 8
  %57 = getelementptr inbounds i64, ptr %56, i64 %.044
  store i64 %.sink, ptr %57, align 8
  %58 = add nuw i64 %.044, 1
  %59 = load i64, ptr %11, align 8
  %60 = add i64 %59, 1
  %61 = icmp ult i64 %58, %60
  br i1 %61, label %.lr.ph, label %._crit_edge

._crit_edge:                                      ; preds = %.loopexit, %15
  call void @__kmpc_for_static_fini(ptr nonnull @2, i32 %17)
  br label %62

62:                                               ; preds = %._crit_edge, %9
  ret void
}